; Function Attrs: mustprogress nounwind uwtable
define hidden void @_ZN13ReplacedNodes22collect_nodes_to_cloneERK10Node_StackR16Unique_Node_List(ptr nocapture noundef nonnull readnone align 8 dereferenceable(8) %0, ptr nocapture noundef nonnull readonly align 8 dereferenceable(32) %1, ptr noundef nonnull align 8 dereferenceable(68) %2) local_unnamed_addr #0 align 2 {
  %4 = load ptr, ptr %1, align 8
  %5 = getelementptr inbounds i8, ptr %4, i64 16
  %6 = getelementptr inbounds i8, ptr %1, i64 16
  %7 = load ptr, ptr %6, align 8
  %8 = ptrtoint ptr %5 to i64
  %9 = ptrtoint ptr %7 to i64
  %10 = sub i64 %8, %9
  %11 = lshr i64 %10, 4
  %12 = trunc i64 %11 to i32
  %.06 = add i32 %12, -1
  %.not7 = icmp eq i32 %.06, 0
  br i1 %.not7, label %._crit_edge, label %.lr.ph

.lr.ph:                                           ; preds = %3
  %13 = getelementptr inbounds i8, ptr %2, i64 32
  %14 = getelementptr inbounds i8, ptr %2, i64 40
  %15 = getelementptr inbounds i8, ptr %2, i64 24
  %16 = getelementptr inbounds i8, ptr %2, i64 8
  %17 = getelementptr inbounds i8, ptr %2, i64 16
  %18 = zext i32 %.06 to i64
  br label %19

19:                                               ; preds = %.lr.ph, %_ZN16Unique_Node_List4pushEP4Node.exit
  %indvars.iv = phi i64 [ %18, %.lr.ph ], [ %indvars.iv.next, %_ZN16Unique_Node_List4pushEP4Node.exit ]
  %20 = load ptr, ptr %6, align 8
  %21 = getelementptr inbounds %"struct.Node_Stack::INode", ptr %20, i64 %indvars.iv
  %22 = load ptr, ptr %21, align 8
  %23 = getelementptr inbounds i8, ptr %22, i64 40
  %24 = load i32, ptr %23, align 8
  %25 = lshr i32 %24, 5
  %26 = load i32, ptr %13, align 8
  %.not.i.i = icmp ult i32 %25, %26
  br i1 %.not.i.i, label %_ZN9VectorSet8test_setEj.exit.i, label %27

27:                                               ; preds = %19
  tail call void @_ZN9VectorSet4growEj(ptr noundef nonnull align 8 dereferenceable(32) %13, i32 noundef %25) #8
  br label %_ZN9VectorSet8test_setEj.exit.i

_ZN9VectorSet8test_setEj.exit.i:                  ; preds = %27, %19
  %28 = and i32 %24, 31
  %29 = shl nuw i32 1, %28
  %30 = load ptr, ptr %14, align 8
  %31 = zext nneg i32 %25 to i64
  %32 = getelementptr inbounds i32, ptr %30, i64 %31
  %33 = load i32, ptr %32, align 4
  %34 = or i32 %33, %29
  store i32 %34, ptr %32, align 4
  %35 = and i32 %33, %29
  %.not.i = icmp eq i32 %35, 0
  br i1 %.not.i, label %36, label %_ZN16Unique_Node_List4pushEP4Node.exit

36:                                               ; preds = %_ZN9VectorSet8test_setEj.exit.i
  %37 = load i32, ptr %15, align 8
  %38 = add i32 %37, 1
  store i32 %38, ptr %15, align 8
  %39 = load i32, ptr %16, align 8
  %.not.i.i.i = icmp ugt i32 %39, %37
  br i1 %.not.i.i.i, label %_ZN9Node_List4pushEP4Node.exit.i, label %40

40:                                               ; preds = %36
  tail call void @_ZN10Node_Array4growEj(ptr noundef nonnull align 8 dereferenceable(24) %2, i32 noundef %37) #8
  br label %_ZN9Node_List4pushEP4Node.exit.i

_ZN9Node_List4pushEP4Node.exit.i:                 ; preds = %40, %36
  %41 = load ptr, ptr %17, align 8
  %42 = zext i32 %37 to i64
  %43 = getelementptr inbounds ptr, ptr %41, i64 %42
  store ptr %22, ptr %43, align 8
  br label %_ZN16Unique_Node_List4pushEP4Node.exit

_ZN16Unique_Node_List4pushEP4Node.exit:           ; preds = %_ZN9VectorSet8test_setEj.exit.i, %_ZN9Node_List4pushEP4Node.exit.i
  %indvars.iv.next = add nsw i64 %indvars.iv, -1
  %44 = and i64 %indvars.iv.next, 4294967295
  %.not = icmp eq i64 %44, 0
  br i1 %.not, label %._crit_edge, label %19, !llvm.loop !13

._crit_edge:                                      ; preds = %_ZN16Unique_Node_List4pushEP4Node.exit, %3
  ret void
}